target datalayout = "e-m:e-p270:32:32-p271:32:32-p272:64:64-i64:64-i128:128-f80:128-n8:16:32:64-S128"
target triple = "x86_64-pc-linux-gnu"

%struct.slurm_conf_t = type { i64, ptr, i16, ptr, ptr, ptr, ptr, ptr, i16, ptr, ptr, ptr, ptr, ptr, ptr, ptr, i16, ptr, ptr, ptr, ptr, i16, ptr, ptr, ptr, i64, ptr, ptr, ptr, ptr, i16, ptr, ptr, i16, i32, ptr, i32, ptr, i32, i32, ptr, ptr, i64, i64, ptr, i16, i16, ptr, i32, i32, ptr, i32, ptr, i32, i16, i16, i16, ptr, i16, i16, ptr, ptr, i32, i16, i16, ptr, i32, i16, ptr, ptr, ptr, ptr, i16, ptr, ptr, ptr, ptr, i32, ptr, ptr, ptr, ptr, i16, i16, ptr, i32, i32, i32, i16, i16, ptr, ptr, i16, ptr, ptr, i32, i32, i32, i32, i32, i64, i32, i32, i16, ptr, ptr, i32, ptr, ptr, ptr, i16, i32, ptr, ptr, i16, ptr, ptr, i32, i16, ptr, ptr, ptr, ptr, i32, i32, i16, i16, i32, ptr, i16, ptr, i32, i32, i32, i32, i32, i32, ptr, i16, ptr, ptr, i32, i16, ptr, i32, i16, i16, ptr, ptr, ptr, i16, ptr, ptr, ptr, ptr, i16, i16, ptr, i16, ptr, i16, ptr, i16, ptr, i16, ptr, ptr, ptr, ptr, i16, ptr, ptr, ptr, i32, ptr, i32, ptr, ptr, i16, ptr, ptr, i32, i16, ptr, ptr, i16, i16, ptr, i16, ptr, ptr, ptr, i32, ptr, i16, i16, ptr, ptr, ptr, ptr, ptr, ptr, ptr, ptr, i16, i32, i16, ptr, ptr, ptr, ptr, i32, ptr, ptr, ptr, i16, ptr, ptr, ptr, i16, ptr, i16, ptr, i16, i16, ptr }
%struct.job_record = type { i32, ptr, ptr, ptr, ptr, i16, i32, i32, i32, ptr, i32, ptr, ptr, i16, ptr, double, i64, ptr, ptr, ptr, ptr, ptr, ptr, i32, ptr, i32, i64, i64, i32, i32, ptr, i16, i64, i64, i8, i32, ptr, ptr, ptr, ptr, ptr, ptr, ptr, ptr, i32, ptr, ptr, i32, ptr, i32, ptr, i32, ptr, i32, ptr, ptr, ptr, ptr, ptr, ptr, i32, i16, i64, ptr, ptr, ptr, ptr, %struct.acct_policy_limit_set_t, i16, ptr, ptr, ptr, ptr, ptr, i32, ptr, ptr, ptr, ptr, ptr, i32, i32, ptr, ptr, ptr, i16, ptr, ptr, i8, ptr, ptr, i64, i64, i8, i32, i32, i8, i32, ptr, i32, i64, i32, ptr, ptr, ptr, i8, i16, i64, i32, ptr, ptr, ptr, ptr, ptr, i16, i32, ptr, ptr, ptr, ptr, i32, ptr, i32, i16, i64, ptr, i32, i32, ptr, i64, ptr, ptr, i64, i32, i32, i64, i32, i32, ptr, ptr, ptr, ptr, ptr, ptr, ptr, ptr, ptr, ptr, ptr, ptr, i32, ptr, i16, i16, i16, i16, ptr, i32, i32, i8, i64 }
%struct.acct_policy_limit_set_t = type { i16, i16, ptr }
%struct.slurmdb_qos_rec_t = type { i64, ptr, i32, i32, i32, i32, i32, i32, ptr, ptr, ptr, ptr, ptr, ptr, i32, double, i32, i32, i32, i32, i32, i32, ptr, ptr, ptr, ptr, ptr, ptr, ptr, ptr, ptr, ptr, ptr, ptr, ptr, ptr, i32, i32, ptr, ptr, ptr, ptr, ptr, i16, i32, i32, ptr, ptr, double, double }

@slurm_conf = external global %struct.slurm_conf_t, align 8
@.str.1 = private unnamed_addr constant [20 x i8] c"%s: unknown enum %d\00", align 1
@__func__.preempt_p_get_data = private unnamed_addr constant [19 x i8] c"preempt_p_get_data\00", align 1

; Function Attrs: nounwind uwtable
define internal i32 @_get_grace_time(ptr noundef %0) #0 {
  %2 = alloca i32, align 4
  %3 = alloca ptr, align 8
  store ptr %0, ptr %3, align 8
  %4 = load ptr, ptr %3, align 8
  %5 = getelementptr inbounds nuw %struct.job_record, ptr %4, i32 0, i32 103
  %6 = load ptr, ptr %5, align 8
  %7 = icmp ne ptr %6, null
  br i1 %7, label %9, label %8

8:                                                ; preds = %1
  store i32 0, ptr %2, align 4
  br label %15

9:                                                ; preds = %1
  %10 = load ptr, ptr %3, align 8
  %11 = getelementptr inbounds nuw %struct.job_record, ptr %10, i32 0, i32 103
  %12 = load ptr, ptr %11, align 8
  %13 = getelementptr inbounds nuw %struct.slurmdb_qos_rec_t, ptr %12, i32 0, i32 4
  %14 = load i32, ptr %13, align 8
  store i32 %14, ptr %2, align 4
  br label %15

15:                                               ; preds = %9, %8
  %16 = load i32, ptr %2, align 4
  ret i32 %16
}

; Function Attrs: nounwind uwtable
define internal i32 @_gen_job_prio(ptr noundef %0) #0 {
  %2 = alloca ptr, align 8
  %3 = alloca i32, align 4
  %4 = alloca ptr, align 8
  store ptr %0, ptr %2, align 8
  call void @llvm.lifetime.start.p0(i64 4, ptr %3) #3
  store i32 0, ptr %3, align 4
  call void @llvm.lifetime.start.p0(i64 8, ptr %4) #3
  %5 = load ptr, ptr %2, align 8
  %6 = getelementptr inbounds nuw %struct.job_record, ptr %5, i32 0, i32 103
  %7 = load ptr, ptr %6, align 8
  store ptr %7, ptr %4, align 8
  %8 = load ptr, ptr %4, align 8
  %9 = icmp ne ptr %8, null
  br i1 %9, label %10, label %22

10:                                               ; preds = %1
  %11 = load ptr, ptr %4, align 8
  %12 = getelementptr inbounds nuw %struct.slurmdb_qos_rec_t, ptr %11, i32 0, i32 45
  %13 = load i32, ptr %12, align 8
  %14 = icmp uge i32 %13, 65535
  br i1 %14, label %15, label %16

15:                                               ; preds = %10
  store i32 -65536, ptr %3, align 4
  br label %21

16:                                               ; preds = %10
  %17 = load ptr, ptr %4, align 8
  %18 = getelementptr inbounds nuw %struct.slurmdb_qos_rec_t, ptr %17, i32 0, i32 45
  %19 = load i32, ptr %18, align 8
  %20 = shl i32 %19, 16
  store i32 %20, ptr %3, align 4
  br label %21

21:                                               ; preds = %16, %15
  br label %22

22:                                               ; preds = %21, %1
  %23 = load ptr, ptr %2, align 8
  %24 = getelementptr inbounds nuw %struct.job_record, ptr %23, i32 0, i32 80
  %25 = load i32, ptr %24, align 8
  %26 = icmp uge i32 %25, 65535
  br i1 %26, label %27, label %30

27:                                               ; preds = %22
  %28 = load i32, ptr %3, align 4
  %29 = add i32 %28, 65535
  store i32 %29, ptr %3, align 4
  br label %36

30:                                               ; preds = %22
  %31 = load ptr, ptr %2, align 8
  %32 = getelementptr inbounds nuw %struct.job_record, ptr %31, i32 0, i32 80
  %33 = load i32, ptr %32, align 8
  %34 = load i32, ptr %3, align 4
  %35 = add i32 %34, %33
  store i32 %35, ptr %3, align 4
  br label %36

36:                                               ; preds = %30, %27
  %37 = load i32, ptr %3, align 4
  call void @llvm.lifetime.end.p0(i64 8, ptr %4) #3
  call void @llvm.lifetime.end.p0(i64 4, ptr %3) #3
  ret i32 %37
}

; Function Attrs: nounwind uwtable
define internal zeroext i16 @_job_preempt_mode(ptr noundef %0) #0 {
  %2 = alloca ptr, align 8
  %3 = alloca i16, align 2
  store ptr %0, ptr %2, align 8
  call void @llvm.lifetime.start.p0(i64 2, ptr %3) #3
  %4 = load ptr, ptr %2, align 8
  %5 = getelementptr inbounds nuw %struct.job_record, ptr %4, i32 0, i32 103
  %6 = load ptr, ptr %5, align 8
  %7 = icmp ne ptr %6, null
  br i1 %7, label %8, label %22

8:                                                ; preds = %1
  %9 = load ptr, ptr %2, align 8
  %10 = getelementptr inbounds nuw %struct.job_record, ptr %9, i32 0, i32 103
  %11 = load ptr, ptr %10, align 8
  %12 = getelementptr inbounds nuw %struct.slurmdb_qos_rec_t, ptr %11, i32 0, i32 43
  %13 = load i16, ptr %12, align 8
  %14 = zext i16 %13 to i32
  %15 = icmp ne i32 %14, 0
  br i1 %15, label %16, label %22

16:                                               ; preds = %8
  %17 = load ptr, ptr %2, align 8
  %18 = getelementptr inbounds nuw %struct.job_record, ptr %17, i32 0, i32 103
  %19 = load ptr, ptr %18, align 8
  %20 = getelementptr inbounds nuw %struct.slurmdb_qos_rec_t, ptr %19, i32 0, i32 43
  %21 = load i16, ptr %20, align 8
  store i16 %21, ptr %3, align 2
  br label %24

22:                                               ; preds = %8, %1
  %23 = load i16, ptr getelementptr inbounds nuw (%struct.slurm_conf_t, ptr @slurm_conf, i32 0, i32 118), align 4
  store i16 %23, ptr %3, align 2
  br label %24

24:                                               ; preds = %22, %16
  %25 = load i16, ptr %3, align 2
  %26 = zext i16 %25 to i32
  %27 = and i32 %26, -32769
  %28 = trunc i32 %27 to i16
  store i16 %28, ptr %3, align 2
  %29 = load i16, ptr %3, align 2
  %30 = zext i16 %29 to i32
  %31 = and i32 %30, -16385
  %32 = trunc i32 %31 to i16
  store i16 %32, ptr %3, align 2
  %33 = load i16, ptr %3, align 2
  call void @llvm.lifetime.end.p0(i64 2, ptr %3) #3
  ret i16 %33
}

; Function Attrs: nounwind uwtable
define dso_local i32 @preempt_p_get_data(ptr noundef %0, i32 noundef %1, ptr noundef %2) #0 {
  %4 = alloca ptr, align 8
  %5 = alloca i32, align 4
  %6 = alloca ptr, align 8
  %7 = alloca i32, align 4
  store ptr %0, ptr %4, align 8
  store i32 %1, ptr %5, align 4
  store ptr %2, ptr %6, align 8
  call void @llvm.lifetime.start.p0(i64 4, ptr %7) #3
  store i32 0, ptr %7, align 4
  %8 = load i32, ptr %5, align 4
  switch i32 %8, label %27 [
    i32 0, label %9
    i32 1, label %15
    i32 2, label %19
    i32 3, label %23
  ]

9:                                                ; preds = %3
  %10 = load i16, ptr getelementptr inbounds nuw (%struct.slurm_conf_t, ptr @slurm_conf, i32 0, i32 118), align 4
  %11 = zext i16 %10 to i32
  %12 = icmp ne i32 %11, 0
  %13 = load ptr, ptr %6, align 8
  %14 = zext i1 %12 to i8
  store i8 %14, ptr %13, align 1
  br label %30

15:                                               ; preds = %3
  %16 = load ptr, ptr %4, align 8
  %17 = call zeroext i16 @_job_preempt_mode(ptr noundef %16)
  %18 = load ptr, ptr %6, align 8
  store i16 %17, ptr %18, align 2
  br label %30

19:                                               ; preds = %3
  %20 = load ptr, ptr %4, align 8
  %21 = call i32 @_gen_job_prio(ptr noundef %20)
  %22 = load ptr, ptr %6, align 8
  store i32 %21, ptr %22, align 4
  br label %30

23:                                               ; preds = %3
  %24 = load ptr, ptr %4, align 8
  %25 = call i32 @_get_grace_time(ptr noundef %24)
  %26 = load ptr, ptr %6, align 8
  store i32 %25, ptr %26, align 4
  br label %30

27:                                               ; preds = %3
  %28 = load i32, ptr %5, align 4
  %29 = call i32 (ptr, ...) @error(ptr noundef @.str.1, ptr noundef @__func__.preempt_p_get_data, i32 noundef %28)
  store i32 -1, ptr %7, align 4
  br label %30

30:                                               ; preds = %27, %23, %19, %15, %9
  %31 = load i32, ptr %7, align 4
  call void @llvm.lifetime.end.p0(i64 4, ptr %7) #3
  ret i32 %31
}